target datalayout = "e-m:e-p270:32:32-p271:32:32-p272:64:64-i64:64-i128:128-f80:128-n8:16:32:64-S128"
target triple = "x86_64-pc-linux-gnu"

%struct.H5PB_t = type { i64, i64, i32, i32, i32, i32, i32, i32, ptr, ptr, i64, ptr, ptr, ptr, [2 x i32], [2 x i32], [2 x i32], [2 x i32], [2 x i32] }
%struct.H5F_shared_t = type { ptr, ptr, ptr, i8, i32, i32, %struct.H5F_mtab_t, ptr, i8, i8, i64, i32, i32, i64, i64, ptr, ptr, %struct.H5AC_cache_config_t, %struct.H5AC_cache_image_config_t, i8, i8, ptr, i64, i32, i8, i64, i64, double, i64, i64, i64, i32, i32, i32, i8, i32, ptr, ptr, ptr, ptr, i8, i8, i8, i64, ptr, ptr, i32, i64, i8, i32, i8, i64, i8, [13 x i32], [13 x i64], [13 x ptr], i8, i64, i64, [7 x i32], [7 x i32], %struct.H5F_blk_aggr_t, %struct.H5F_blk_aggr_t, i64, i64, %struct.H5F_meta_accum_t, i32, i32, [30 x ptr], %struct.H5F_object_flush_t, i8, ptr }
%struct.H5F_mtab_t = type { i32, i32, ptr }
%struct.H5AC_cache_config_t = type { i32, i8, i8, i8, [1025 x i8], i8, i8, i64, double, i64, i64, i64, i32, double, double, i8, i64, i32, double, double, i32, double, double, i8, i64, i32, i8, double, i64, i32 }
%struct.H5AC_cache_image_config_t = type { i32, i8, i8, i32 }
%struct.H5F_blk_aggr_t = type { i64, i64, i64, i64, i64 }
%struct.H5F_meta_accum_t = type { ptr, i64, i64, i64, i64, i64, i8 }
%struct.H5F_object_flush_t = type { ptr, ptr }

@H5PB_init_g = global i8 0, align 1
@H5_libterm_g = external global i8, align 1
@.str.10 = private unnamed_addr constant [98 x i8] c"generated/home/dtcxzyw/WorkSpace/Projects/compilers/llvm-opt-benchmark/bench/hdf5/hdf5/src/H5PB.c\00", align 1
@H5E_PAGEBUF_g = external global i64, align 8
@__func__.H5PB_flush = private unnamed_addr constant [11 x i8] c"H5PB_flush\00", align 1
@H5E_BADITER_g = external global i64, align 8
@.str.16 = private unnamed_addr constant [34 x i8] c"can't flush page buffer skip list\00", align 1

; Function Attrs: nounwind uwtable
define i32 @H5PB_flush(ptr noundef %0) #0 {
  %2 = alloca i32, align 4
  %3 = alloca ptr, align 8
  %4 = alloca i32, align 4
  %5 = alloca i8, align 1
  %6 = alloca ptr, align 8
  %7 = alloca i32, align 4
  store ptr %0, ptr %3, align 8, !tbaa !16
  call void @llvm.lifetime.start.p0(i64 4, ptr %4) #6
  store i32 0, ptr %4, align 4, !tbaa !12
  call void @llvm.lifetime.start.p0(i64 1, ptr %5) #6
  store i8 0, ptr %5, align 1, !tbaa !8
  %8 = load i8, ptr @H5PB_init_g, align 1, !tbaa !8, !range !10, !noundef !11
  %9 = trunc i8 %8 to i1
  br i1 %9, label %14, label %10

10:                                               ; preds = %1
  %11 = load i8, ptr @H5_libterm_g, align 1, !tbaa !8, !range !10, !noundef !11
  %12 = trunc i8 %11 to i1
  %13 = xor i1 %12, true
  br label %14

14:                                               ; preds = %10, %1
  %15 = phi i1 [ false, %1 ], [ %13, %10 ]
  %16 = xor i1 %15, true
  %17 = xor i1 %16, true
  %18 = zext i1 %17 to i32
  %19 = sext i32 %18 to i64
  %20 = call i64 @llvm.expect.i64(i64 %19, i64 0)
  %21 = icmp ne i64 %20, 0
  br i1 %21, label %22, label %23

22:                                               ; preds = %14
  store i8 1, ptr @H5PB_init_g, align 1, !tbaa !8
  br label %23

23:                                               ; preds = %22, %14
  %24 = load i8, ptr @H5PB_init_g, align 1, !tbaa !8, !range !10, !noundef !11
  %25 = trunc i8 %24 to i1
  br i1 %25, label %30, label %26

26:                                               ; preds = %23
  %27 = load i8, ptr @H5_libterm_g, align 1, !tbaa !8, !range !10, !noundef !11
  %28 = trunc i8 %27 to i1
  %29 = xor i1 %28, true
  br label %30

30:                                               ; preds = %26, %23
  %31 = phi i1 [ true, %23 ], [ %29, %26 ]
  %32 = xor i1 %31, true
  %33 = xor i1 %32, true
  %34 = zext i1 %33 to i32
  %35 = sext i32 %34 to i64
  %36 = call i64 @llvm.expect.i64(i64 %35, i64 1)
  %37 = icmp ne i64 %36, 0
  br i1 %37, label %38, label %83

38:                                               ; preds = %30
  %39 = load ptr, ptr %3, align 8, !tbaa !16
  %40 = getelementptr inbounds nuw %struct.H5F_shared_t, ptr %39, i32 0, i32 15
  %41 = load ptr, ptr %40, align 8, !tbaa !54
  %42 = icmp ne ptr %41, null
  br i1 %42, label %43, label %81

43:                                               ; preds = %38
  %44 = load ptr, ptr %3, align 8, !tbaa !16
  %45 = call i32 @H5F_shared_get_intent(ptr noundef %44)
  %46 = and i32 1, %45
  %47 = icmp ne i32 %46, 0
  br i1 %47, label %48, label %81

48:                                               ; preds = %43
  call void @llvm.lifetime.start.p0(i64 8, ptr %6) #6
  %49 = load ptr, ptr %3, align 8, !tbaa !16
  %50 = getelementptr inbounds nuw %struct.H5F_shared_t, ptr %49, i32 0, i32 15
  %51 = load ptr, ptr %50, align 8, !tbaa !54
  store ptr %51, ptr %6, align 8, !tbaa !3
  %52 = load ptr, ptr %6, align 8, !tbaa !3
  %53 = getelementptr inbounds nuw %struct.H5PB_t, ptr %52, i32 0, i32 8
  %54 = load ptr, ptr %53, align 8, !tbaa !51
  %55 = load ptr, ptr %3, align 8, !tbaa !16
  %56 = call i32 @H5SL_iterate(ptr noundef %54, ptr noundef @H5PB__flush_cb, ptr noundef %55)
  %57 = icmp ne i32 %56, 0
  br i1 %57, label %58, label %77

58:                                               ; preds = %48
  br label %59

59:                                               ; preds = %58
  br label %60

60:                                               ; preds = %59
  br label %61

61:                                               ; preds = %60
  %62 = load i64, ptr @H5E_PAGEBUF_g, align 8, !tbaa !18
  %63 = load i64, ptr @H5E_BADITER_g, align 8, !tbaa !18
  %64 = call i32 (ptr, ptr, i32, i64, i64, ptr, ...) @H5E_printf_stack(ptr noundef @.str.10, ptr noundef @__func__.H5PB_flush, i32 noundef 398, i64 noundef %62, i64 noundef %63, ptr noundef @.str.16)
  br label %65

65:                                               ; preds = %61
  br label %66

66:                                               ; preds = %65
  store i8 1, ptr %5, align 1, !tbaa !8
  %67 = load i8, ptr %5, align 1, !tbaa !8, !range !10, !noundef !11
  %68 = trunc i8 %67 to i1
  %69 = zext i1 %68 to i8
  store i8 %69, ptr %5, align 1, !tbaa !8
  br label %70

70:                                               ; preds = %66
  br label %71

71:                                               ; preds = %70
  br label %72

72:                                               ; preds = %71
  store i32 -1, ptr %4, align 4, !tbaa !12
  store i32 10, ptr %7, align 4
  br label %78

73:                                               ; No predecessors!
  br label %74

74:                                               ; preds = %73
  br label %75

75:                                               ; preds = %74
  br label %76

76:                                               ; preds = %75
  br label %77

77:                                               ; preds = %76, %48
  store i32 0, ptr %7, align 4
  br label %78

78:                                               ; preds = %72, %77
  call void @llvm.lifetime.end.p0(i64 8, ptr %6) #6
  %79 = load i32, ptr %7, align 4
  switch i32 %79, label %85 [
    i32 0, label %80
    i32 10, label %82
  ]

80:                                               ; preds = %78
  br label %81

81:                                               ; preds = %80, %43, %38
  br label %82

82:                                               ; preds = %81, %78
  br label %83

83:                                               ; preds = %82, %30
  %84 = load i32, ptr %4, align 4, !tbaa !12
  store i32 %84, ptr %2, align 4
  store i32 1, ptr %7, align 4
  br label %85

85:                                               ; preds = %83, %78
  call void @llvm.lifetime.end.p0(i64 1, ptr %5) #6
  call void @llvm.lifetime.end.p0(i64 4, ptr %4) #6
  %86 = load i32, ptr %2, align 4
  ret i32 %86
}