; Function Attrs: nounwind uwtable
define range(i32 -1, 1) i32 @H5PB_flush(ptr noundef %0) local_unnamed_addr #4 {
  %2 = load i8, ptr @H5PB_init_g, align 1, !tbaa !3, !range !7, !noundef !8
  %3 = trunc nuw i8 %2 to i1
  %4 = load i8, ptr @H5_libterm_g, align 1, !range !7
  %5 = trunc nuw i8 %4 to i1
  %6 = select i1 %3, i1 true, i1 %5
  br i1 %6, label %7, label %.thread, !prof !9

.thread:                                          ; preds = %1
  store i8 1, ptr @H5PB_init_g, align 1, !tbaa !3
  br label %10

7:                                                ; preds = %1
  %8 = xor i1 %5, true
  %9 = select i1 %3, i1 true, i1 %8
  br i1 %9, label %10, label %25, !prof !10

10:                                               ; preds = %.thread, %7
  %11 = getelementptr inbounds nuw i8, ptr %0, i64 104
  %12 = load ptr, ptr %11, align 8, !tbaa !51
  %.not = icmp eq ptr %12, null
  br i1 %.not, label %25, label %13

13:                                               ; preds = %10
  %14 = tail call i32 @H5F_shared_get_intent(ptr noundef nonnull %0) #10
  %15 = and i32 %14, 1
  %.not10 = icmp eq i32 %15, 0
  br i1 %.not10, label %25, label %16

16:                                               ; preds = %13
  %17 = load ptr, ptr %11, align 8, !tbaa !51
  %18 = getelementptr inbounds nuw i8, ptr %17, i64 40
  %19 = load ptr, ptr %18, align 8, !tbaa !48
  %20 = tail call i32 @H5SL_iterate(ptr noundef %19, ptr noundef nonnull @H5PB__flush_cb, ptr noundef nonnull %0) #10
  %.not11 = icmp eq i32 %20, 0
  br i1 %.not11, label %25, label %21

21:                                               ; preds = %16
  %22 = load i64, ptr @H5E_PAGEBUF_g, align 8, !tbaa !37
  %23 = load i64, ptr @H5E_BADITER_g, align 8, !tbaa !37
  %24 = tail call i32 (ptr, ptr, i32, i64, i64, ptr, ...) @H5E_printf_stack(ptr noundef nonnull @.str.10, ptr noundef nonnull @__func__.H5PB_flush, i32 noundef 398, i64 noundef %22, i64 noundef %23, ptr noundef nonnull @.str.16) #10
  br label %25

25:                                               ; preds = %21, %16, %7, %10, %13
  %.08 = phi i32 [ 0, %13 ], [ 0, %10 ], [ 0, %7 ], [ -1, %21 ], [ 0, %16 ]
  ret i32 %.08
}